; Function Attrs: mustprogress nounwind uwtable
define hidden void @_ZN16G1FreeRegionList10remove_allEv(ptr noundef nonnull align 8 dereferenceable(72) %0) local_unnamed_addr #0 align 2 {
  %2 = getelementptr inbounds i8, ptr %0, i64 8
  %3 = load ptr, ptr %2, align 8
  %.not.i = icmp eq ptr %3, null
  br i1 %.not.i, label %_ZN19G1HeapRegionSetBase15check_mt_safetyEv.exit, label %4

4:                                                ; preds = %1
  %5 = load ptr, ptr %3, align 8
  %6 = load ptr, ptr %5, align 8
  tail call void %6(ptr noundef nonnull align 8 dereferenceable(8) %3) #12
  br label %_ZN19G1HeapRegionSetBase15check_mt_safetyEv.exit

_ZN19G1HeapRegionSetBase15check_mt_safetyEv.exit: ; preds = %1, %4
  %7 = getelementptr inbounds i8, ptr %0, i64 40
  %8 = load ptr, ptr %7, align 8
  %.not10 = icmp eq ptr %8, null
  br i1 %.not10, label %._crit_edge, label %.lr.ph

.lr.ph:                                           ; preds = %_ZN19G1HeapRegionSetBase15check_mt_safetyEv.exit
  %9 = getelementptr inbounds i8, ptr %0, i64 64
  br label %10

10:                                               ; preds = %.lr.ph, %_ZN16G1FreeRegionList15decrease_lengthEj.exit
  %.011 = phi ptr [ %8, %.lr.ph ], [ %12, %_ZN16G1FreeRegionList15decrease_lengthEj.exit ]
  %11 = getelementptr inbounds i8, ptr %.011, i64 72
  %12 = load ptr, ptr %11, align 8
  %13 = getelementptr inbounds i8, ptr %.011, i64 124
  tail call void @llvm.memset.p0.i64(ptr noundef nonnull align 8 dereferenceable(16) %11, i8 0, i64 16, i1 false)
  %14 = load i32, ptr %13, align 4
  %15 = load ptr, ptr %9, align 8
  %.not.i9 = icmp eq ptr %15, null
  br i1 %.not.i9, label %_ZN16G1FreeRegionList15decrease_lengthEj.exit, label %16

16:                                               ; preds = %10
  %17 = getelementptr inbounds i8, ptr %15, i64 16
  %18 = load i32, ptr %17, align 8
  %19 = icmp ugt i32 %18, %14
  br i1 %19, label %20, label %_ZN16G1FreeRegionList15decrease_lengthEj.exit

20:                                               ; preds = %16
  %21 = getelementptr inbounds i8, ptr %15, i64 8
  %22 = load ptr, ptr %21, align 8
  %23 = zext i32 %14 to i64
  %24 = getelementptr inbounds i32, ptr %22, i64 %23
  %25 = load i32, ptr %24, align 4
  %26 = add i32 %25, -1
  store i32 %26, ptr %24, align 4
  br label %_ZN16G1FreeRegionList15decrease_lengthEj.exit

_ZN16G1FreeRegionList15decrease_lengthEj.exit:    ; preds = %10, %16, %20
  %.not = icmp eq ptr %12, null
  br i1 %.not, label %._crit_edge, label %10, !llvm.loop !6

._crit_edge:                                      ; preds = %_ZN16G1FreeRegionList15decrease_lengthEj.exit, %_ZN19G1HeapRegionSetBase15check_mt_safetyEv.exit
  %27 = load ptr, ptr %0, align 8
  %28 = getelementptr inbounds i8, ptr %27, i64 16
  %29 = load ptr, ptr %28, align 8
  tail call void %29(ptr noundef nonnull align 8 dereferenceable(72) %0) #12
  ret void
}